target datalayout = "e-m:e-p270:32:32-p271:32:32-p272:64:64-i64:64-i128:128-f80:128-n8:16:32:64-S128"
target triple = "x86_64-pc-linux-gnu"

%"struct.cv::OcvDftOptions" = type <{ i32, [4 x i8], ptr, double, ptr, ptr, i32, i32, i8, i8, i8, i8, [4 x i8], ptr, i8, [7 x i8] }>
%"class.cv::Complex" = type { double, double }

; Function Attrs: mustprogress uwtable
define internal void @_ZN2cvL4IDCTIdEEvRKNS_13OcvDftOptionsEPKT_mPS4_S7_S7_mPKNS_7ComplexIS4_EE(ptr noundef nonnull align 8 dereferenceable(65) %0, ptr noundef %1, i64 noundef %2, ptr noundef %3, ptr noundef %4, ptr noundef %5, i64 noundef %6, ptr noundef %7) #0 {
  %9 = alloca ptr, align 8
  %10 = alloca ptr, align 8
  %11 = alloca i64, align 8
  %12 = alloca ptr, align 8
  %13 = alloca ptr, align 8
  %14 = alloca ptr, align 8
  %15 = alloca i64, align 8
  %16 = alloca ptr, align 8
  %17 = alloca i32, align 4
  %18 = alloca i32, align 4
  %19 = alloca i32, align 4
  %20 = alloca ptr, align 8
  %21 = alloca i32, align 4
  %22 = alloca double, align 8
  %23 = alloca double, align 8
  store ptr %0, ptr %9, align 8, !tbaa !170
  store ptr %1, ptr %10, align 8, !tbaa !128
  store i64 %2, ptr %11, align 8, !tbaa !118
  store ptr %3, ptr %12, align 8, !tbaa !128
  store ptr %4, ptr %13, align 8, !tbaa !128
  store ptr %5, ptr %14, align 8, !tbaa !128
  store i64 %6, ptr %15, align 8, !tbaa !118
  store ptr %7, ptr %16, align 8, !tbaa !216
  call void @llvm.lifetime.start.p0(i64 4, ptr %17) #19
  %24 = load ptr, ptr %9, align 8, !tbaa !170
  %25 = getelementptr inbounds nuw %"struct.cv::OcvDftOptions", ptr %24, i32 0, i32 7
  %26 = load i32, ptr %25, align 4, !tbaa !178
  store i32 %26, ptr %17, align 4, !tbaa !3
  call void @llvm.lifetime.start.p0(i64 4, ptr %18) #19
  call void @llvm.lifetime.start.p0(i64 4, ptr %19) #19
  %27 = load i32, ptr %17, align 4, !tbaa !3
  %28 = ashr i32 %27, 1
  store i32 %28, ptr %19, align 4, !tbaa !3
  %29 = load i64, ptr %11, align 8, !tbaa !118
  %30 = udiv i64 %29, 8
  store i64 %30, ptr %11, align 8, !tbaa !118
  %31 = load i64, ptr %15, align 8, !tbaa !118
  %32 = udiv i64 %31, 8
  store i64 %32, ptr %15, align 8, !tbaa !118
  call void @llvm.lifetime.start.p0(i64 8, ptr %20) #19
  %33 = load ptr, ptr %10, align 8, !tbaa !128
  %34 = load i32, ptr %17, align 4, !tbaa !3
  %35 = sub nsw i32 %34, 1
  %36 = sext i32 %35 to i64
  %37 = load i64, ptr %11, align 8, !tbaa !118
  %38 = mul i64 %36, %37
  %39 = getelementptr inbounds nuw double, ptr %33, i64 %38
  store ptr %39, ptr %20, align 8, !tbaa !128
  %40 = load i32, ptr %17, align 4, !tbaa !3
  %41 = icmp eq i32 %40, 1
  br i1 %41, label %42, label %48

42:                                               ; preds = %8
  %43 = load ptr, ptr %10, align 8, !tbaa !128
  %44 = getelementptr inbounds double, ptr %43, i64 0
  %45 = load double, ptr %44, align 8, !tbaa !198
  %46 = load ptr, ptr %14, align 8, !tbaa !128
  %47 = getelementptr inbounds double, ptr %46, i64 0
  store double %45, ptr %47, align 8, !tbaa !198
  store i32 1, ptr %21, align 4
  br label %174

48:                                               ; preds = %8
  %49 = load ptr, ptr %10, align 8, !tbaa !128
  %50 = getelementptr inbounds double, ptr %49, i64 0
  %51 = load double, ptr %50, align 8, !tbaa !198
  %52 = fmul double %51, 2.000000e+00
  %53 = load ptr, ptr %16, align 8, !tbaa !216
  %54 = getelementptr inbounds nuw %"class.cv::Complex", ptr %53, i32 0, i32 0
  %55 = load double, ptr %54, align 8, !tbaa !213
  %56 = fmul double %52, %55
  %57 = fmul double %56, 0x3FE6A09E667F3BCD
  %58 = load ptr, ptr %12, align 8, !tbaa !128
  %59 = getelementptr inbounds double, ptr %58, i64 0
  store double %57, ptr %59, align 8, !tbaa !198
  %60 = load i64, ptr %11, align 8, !tbaa !118
  %61 = load ptr, ptr %10, align 8, !tbaa !128
  %62 = getelementptr inbounds nuw double, ptr %61, i64 %60
  store ptr %62, ptr %10, align 8, !tbaa !128
  store i32 1, ptr %18, align 4, !tbaa !3
  %63 = load ptr, ptr %16, align 8, !tbaa !216
  %64 = getelementptr inbounds nuw %"class.cv::Complex", ptr %63, i32 1
  store ptr %64, ptr %16, align 8, !tbaa !216
  br label %65

65:                                               ; preds = %114, %48
  %66 = load i32, ptr %18, align 4, !tbaa !3
  %67 = load i32, ptr %19, align 4, !tbaa !3
  %68 = icmp slt i32 %66, %67
  br i1 %68, label %69, label %126

69:                                               ; preds = %65
  call void @llvm.lifetime.start.p0(i64 8, ptr %22) #19
  %70 = load ptr, ptr %16, align 8, !tbaa !216
  %71 = getelementptr inbounds nuw %"class.cv::Complex", ptr %70, i32 0, i32 0
  %72 = load double, ptr %71, align 8, !tbaa !213
  %73 = load ptr, ptr %10, align 8, !tbaa !128
  %74 = getelementptr inbounds double, ptr %73, i64 0
  %75 = load double, ptr %74, align 8, !tbaa !198
  %76 = load ptr, ptr %16, align 8, !tbaa !216
  %77 = getelementptr inbounds nuw %"class.cv::Complex", ptr %76, i32 0, i32 1
  %78 = load double, ptr %77, align 8, !tbaa !215
  %79 = load ptr, ptr %20, align 8, !tbaa !128
  %80 = getelementptr inbounds double, ptr %79, i64 0
  %81 = load double, ptr %80, align 8, !tbaa !198
  %82 = fmul double %78, %81
  %83 = fneg double %82
  %84 = call double @llvm.fmuladd.f64(double %72, double %75, double %83)
  store double %84, ptr %22, align 8, !tbaa !198
  call void @llvm.lifetime.start.p0(i64 8, ptr %23) #19
  %85 = load ptr, ptr %16, align 8, !tbaa !216
  %86 = getelementptr inbounds nuw %"class.cv::Complex", ptr %85, i32 0, i32 1
  %87 = load double, ptr %86, align 8, !tbaa !215
  %88 = fneg double %87
  %89 = load ptr, ptr %10, align 8, !tbaa !128
  %90 = getelementptr inbounds double, ptr %89, i64 0
  %91 = load double, ptr %90, align 8, !tbaa !198
  %92 = load ptr, ptr %16, align 8, !tbaa !216
  %93 = getelementptr inbounds nuw %"class.cv::Complex", ptr %92, i32 0, i32 0
  %94 = load double, ptr %93, align 8, !tbaa !213
  %95 = load ptr, ptr %20, align 8, !tbaa !128
  %96 = getelementptr inbounds double, ptr %95, i64 0
  %97 = load double, ptr %96, align 8, !tbaa !198
  %98 = fmul double %94, %97
  %99 = fneg double %98
  %100 = call double @llvm.fmuladd.f64(double %88, double %91, double %99)
  store double %100, ptr %23, align 8, !tbaa !198
  %101 = load double, ptr %22, align 8, !tbaa !198
  %102 = load ptr, ptr %12, align 8, !tbaa !128
  %103 = load i32, ptr %18, align 4, !tbaa !3
  %104 = mul nsw i32 %103, 2
  %105 = sub nsw i32 %104, 1
  %106 = sext i32 %105 to i64
  %107 = getelementptr inbounds double, ptr %102, i64 %106
  store double %101, ptr %107, align 8, !tbaa !198
  %108 = load double, ptr %23, align 8, !tbaa !198
  %109 = load ptr, ptr %12, align 8, !tbaa !128
  %110 = load i32, ptr %18, align 4, !tbaa !3
  %111 = mul nsw i32 %110, 2
  %112 = sext i32 %111 to i64
  %113 = getelementptr inbounds double, ptr %109, i64 %112
  store double %108, ptr %113, align 8, !tbaa !198
  call void @llvm.lifetime.end.p0(i64 8, ptr %23) #19
  call void @llvm.lifetime.end.p0(i64 8, ptr %22) #19
  br label %114

114:                                              ; preds = %69
  %115 = load i32, ptr %18, align 4, !tbaa !3
  %116 = add nsw i32 %115, 1
  store i32 %116, ptr %18, align 4, !tbaa !3
  %117 = load ptr, ptr %16, align 8, !tbaa !216
  %118 = getelementptr inbounds nuw %"class.cv::Complex", ptr %117, i32 1
  store ptr %118, ptr %16, align 8, !tbaa !216
  %119 = load i64, ptr %11, align 8, !tbaa !118
  %120 = load ptr, ptr %10, align 8, !tbaa !128
  %121 = getelementptr inbounds nuw double, ptr %120, i64 %119
  store ptr %121, ptr %10, align 8, !tbaa !128
  %122 = load i64, ptr %11, align 8, !tbaa !118
  %123 = load ptr, ptr %20, align 8, !tbaa !128
  %124 = sub i64 0, %122
  %125 = getelementptr inbounds double, ptr %123, i64 %124
  store ptr %125, ptr %20, align 8, !tbaa !128
  br label %65, !llvm.loop !399

126:                                              ; preds = %65
  %127 = load ptr, ptr %10, align 8, !tbaa !128
  %128 = getelementptr inbounds double, ptr %127, i64 0
  %129 = load double, ptr %128, align 8, !tbaa !198
  %130 = fmul double %129, 2.000000e+00
  %131 = load ptr, ptr %16, align 8, !tbaa !216
  %132 = getelementptr inbounds nuw %"class.cv::Complex", ptr %131, i32 0, i32 0
  %133 = load double, ptr %132, align 8, !tbaa !213
  %134 = fmul double %130, %133
  %135 = load ptr, ptr %12, align 8, !tbaa !128
  %136 = load i32, ptr %17, align 4, !tbaa !3
  %137 = sub nsw i32 %136, 1
  %138 = sext i32 %137 to i64
  %139 = getelementptr inbounds double, ptr %135, i64 %138
  store double %134, ptr %139, align 8, !tbaa !198
  %140 = load ptr, ptr %9, align 8, !tbaa !170
  %141 = load ptr, ptr %12, align 8, !tbaa !128
  %142 = load ptr, ptr %13, align 8, !tbaa !128
  call void @_ZN2cvL7CCSIDFTIdEEvRKNS_13OcvDftOptionsEPKT_PS4_(ptr noundef nonnull align 8 dereferenceable(65) %140, ptr noundef %141, ptr noundef %142)
  store i32 0, ptr %18, align 4, !tbaa !3
  br label %143

143:                                              ; preds = %166, %126
  %144 = load i32, ptr %18, align 4, !tbaa !3
  %145 = load i32, ptr %19, align 4, !tbaa !3
  %146 = icmp slt i32 %144, %145
  br i1 %146, label %147, label %173

147:                                              ; preds = %143
  %148 = load ptr, ptr %13, align 8, !tbaa !128
  %149 = load i32, ptr %18, align 4, !tbaa !3
  %150 = sext i32 %149 to i64
  %151 = getelementptr inbounds double, ptr %148, i64 %150
  %152 = load double, ptr %151, align 8, !tbaa !198
  %153 = load ptr, ptr %14, align 8, !tbaa !128
  %154 = getelementptr inbounds double, ptr %153, i64 0
  store double %152, ptr %154, align 8, !tbaa !198
  %155 = load ptr, ptr %13, align 8, !tbaa !128
  %156 = load i32, ptr %17, align 4, !tbaa !3
  %157 = load i32, ptr %18, align 4, !tbaa !3
  %158 = sub nsw i32 %156, %157
  %159 = sub nsw i32 %158, 1
  %160 = sext i32 %159 to i64
  %161 = getelementptr inbounds double, ptr %155, i64 %160
  %162 = load double, ptr %161, align 8, !tbaa !198
  %163 = load ptr, ptr %14, align 8, !tbaa !128
  %164 = load i64, ptr %15, align 8, !tbaa !118
  %165 = getelementptr inbounds nuw double, ptr %163, i64 %164
  store double %162, ptr %165, align 8, !tbaa !198
  br label %166

166:                                              ; preds = %147
  %167 = load i32, ptr %18, align 4, !tbaa !3
  %168 = add nsw i32 %167, 1
  store i32 %168, ptr %18, align 4, !tbaa !3
  %169 = load i64, ptr %15, align 8, !tbaa !118
  %170 = mul i64 %169, 2
  %171 = load ptr, ptr %14, align 8, !tbaa !128
  %172 = getelementptr inbounds nuw double, ptr %171, i64 %170
  store ptr %172, ptr %14, align 8, !tbaa !128
  br label %143, !llvm.loop !400

173:                                              ; preds = %143
  store i32 0, ptr %21, align 4
  br label %174

174:                                              ; preds = %173, %42
  call void @llvm.lifetime.end.p0(i64 8, ptr %20) #19
  call void @llvm.lifetime.end.p0(i64 4, ptr %19) #19
  call void @llvm.lifetime.end.p0(i64 4, ptr %18) #19
  call void @llvm.lifetime.end.p0(i64 4, ptr %17) #19
  %175 = load i32, ptr %21, align 4
  switch i32 %175, label %177 [
    i32 0, label %176
    i32 1, label %176
  ]

176:                                              ; preds = %174, %174
  ret void

177:                                              ; preds = %174
  unreachable
}

; Function Attrs: mustprogress uwtable
define internal void @_ZN2cvL8IDCT_64fERKNS_13OcvDftOptionsEPKdmPdS5_S5_mPKNS_7ComplexIdEE(ptr noundef nonnull align 8 dereferenceable(65) %0, ptr noundef %1, i64 noundef %2, ptr noundef %3, ptr noundef %4, ptr noundef %5, i64 noundef %6, ptr noundef %7) #0 {
  %9 = alloca ptr, align 8
  %10 = alloca ptr, align 8
  %11 = alloca i64, align 8
  %12 = alloca ptr, align 8
  %13 = alloca ptr, align 8
  %14 = alloca ptr, align 8
  %15 = alloca i64, align 8
  %16 = alloca ptr, align 8
  store ptr %0, ptr %9, align 8, !tbaa !170
  store ptr %1, ptr %10, align 8, !tbaa !128
  store i64 %2, ptr %11, align 8, !tbaa !118
  store ptr %3, ptr %12, align 8, !tbaa !128
  store ptr %4, ptr %13, align 8, !tbaa !128
  store ptr %5, ptr %14, align 8, !tbaa !128
  store i64 %6, ptr %15, align 8, !tbaa !118
  store ptr %7, ptr %16, align 8, !tbaa !216
  %17 = load ptr, ptr %9, align 8, !tbaa !170
  %18 = load ptr, ptr %10, align 8, !tbaa !128
  %19 = load i64, ptr %11, align 8, !tbaa !118
  %20 = load ptr, ptr %12, align 8, !tbaa !128
  %21 = load ptr, ptr %13, align 8, !tbaa !128
  %22 = load ptr, ptr %14, align 8, !tbaa !128
  %23 = load i64, ptr %15, align 8, !tbaa !118
  %24 = load ptr, ptr %16, align 8, !tbaa !216
  call void @_ZN2cvL4IDCTIdEEvRKNS_13OcvDftOptionsEPKT_mPS4_S7_S7_mPKNS_7ComplexIS4_EE(ptr noundef nonnull align 8 dereferenceable(65) %17, ptr noundef %18, i64 noundef %19, ptr noundef %20, ptr noundef %21, ptr noundef %22, i64 noundef %23, ptr noundef %24)
  ret void
}