; Function Attrs: mustprogress uwtable
define internal void @_ZN2cvL8IDCT_64fERKNS_13OcvDftOptionsEPKdmPdS5_S5_mPKNS_7ComplexIdEE(ptr noundef nonnull readonly align 8 captures(none) dereferenceable(65) %0, ptr noundef readonly captures(none) %1, i64 noundef %2, ptr noundef %3, ptr noundef %4, ptr noundef writeonly captures(none) %5, i64 noundef %6, ptr noundef readonly captures(none) %7) #0 {
  %9 = getelementptr inbounds nuw i8, ptr %0, i64 44
  %10 = load i32, ptr %9, align 4, !tbaa !213
  %11 = ashr i32 %10, 1
  %12 = lshr i64 %2, 3
  %13 = lshr i64 %6, 3
  %14 = add nsw i32 %10, -1
  %15 = sext i32 %14 to i64
  %16 = icmp eq i32 %10, 1
  %17 = load double, ptr %1, align 8, !tbaa !144
  br i1 %16, label %18, label %19

18:                                               ; preds = %8
  store double %17, ptr %5, align 8, !tbaa !144
  br label %_ZN2cvL4IDCTIdEEvRKNS_13OcvDftOptionsEPKT_mPS4_S7_S7_mPKNS_7ComplexIS4_EE.exit

19:                                               ; preds = %8
  %20 = fmul double %17, 2.000000e+00
  %21 = load double, ptr %7, align 8, !tbaa !203
  %22 = fmul double %20, %21
  %23 = fmul double %22, 0x3FE6A09E667F3BCD
  store double %23, ptr %3, align 8, !tbaa !144
  %.06064.i = getelementptr inbounds nuw i8, ptr %7, i64 16
  %.065.i = getelementptr inbounds nuw double, ptr %1, i64 %12
  %24 = icmp sgt i32 %11, 1
  br i1 %24, label %.lr.ph.i, label %._crit_edge.i

.lr.ph.i:                                         ; preds = %19
  %25 = mul i64 %12, %15
  %26 = getelementptr inbounds nuw double, ptr %1, i64 %25
  %27 = sub nsw i64 0, %12
  %wide.trip.count.i = zext nneg i32 %11 to i64
  br label %28

28:                                               ; preds = %28, %.lr.ph.i
  %indvars.iv.i = phi i64 [ 1, %.lr.ph.i ], [ %indvars.iv.next.i, %28 ]
  %.070.i = phi ptr [ %.065.i, %.lr.ph.i ], [ %.0.i, %28 ]
  %.06069.i = phi ptr [ %.06064.i, %.lr.ph.i ], [ %.060.i, %28 ]
  %.05768.i = phi ptr [ %26, %.lr.ph.i ], [ %42, %28 ]
  %.pn6366.i = phi ptr [ %7, %.lr.ph.i ], [ %.06069.i, %28 ]
  %29 = load double, ptr %.06069.i, align 8, !tbaa !203
  %30 = load double, ptr %.070.i, align 8, !tbaa !144
  %31 = getelementptr inbounds nuw i8, ptr %.pn6366.i, i64 24
  %32 = load double, ptr %31, align 8, !tbaa !205
  %33 = load double, ptr %.05768.i, align 8, !tbaa !144
  %34 = fneg double %33
  %35 = fmul double %32, %34
  %36 = tail call double @llvm.fmuladd.f64(double %29, double %30, double %35)
  %37 = fneg double %32
  %38 = fmul double %29, %34
  %39 = tail call double @llvm.fmuladd.f64(double %37, double %30, double %38)
  %.idx84.i = shl i64 %indvars.iv.i, 4
  %40 = getelementptr i8, ptr %3, i64 %.idx84.i
  %41 = getelementptr i8, ptr %40, i64 -8
  store double %36, ptr %41, align 8, !tbaa !144
  store double %39, ptr %40, align 8, !tbaa !144
  %indvars.iv.next.i = add nuw nsw i64 %indvars.iv.i, 1
  %42 = getelementptr inbounds double, ptr %.05768.i, i64 %27
  %.060.i = getelementptr inbounds nuw i8, ptr %.06069.i, i64 16
  %.0.i = getelementptr inbounds nuw double, ptr %.070.i, i64 %12
  %exitcond.not.i = icmp eq i64 %indvars.iv.next.i, %wide.trip.count.i
  br i1 %exitcond.not.i, label %._crit_edge.i, label %28, !llvm.loop !328

._crit_edge.i:                                    ; preds = %28, %19
  %.060.lcssa.i = phi ptr [ %.06064.i, %19 ], [ %.060.i, %28 ]
  %.0.lcssa.i = phi ptr [ %.065.i, %19 ], [ %.0.i, %28 ]
  %43 = load double, ptr %.0.lcssa.i, align 8, !tbaa !144
  %44 = fmul double %43, 2.000000e+00
  %45 = load double, ptr %.060.lcssa.i, align 8, !tbaa !203
  %46 = fmul double %44, %45
  %47 = getelementptr inbounds double, ptr %3, i64 %15
  store double %46, ptr %47, align 8, !tbaa !144
  tail call fastcc void @_ZN2cvL7CCSIDFTIdEEvRKNS_13OcvDftOptionsEPKT_PS4_(ptr noundef nonnull readonly align 8 dereferenceable(65) %0, ptr noundef nonnull %3, ptr noundef %4)
  %48 = icmp sgt i32 %11, 0
  br i1 %48, label %.lr.ph75.i, label %_ZN2cvL4IDCTIdEEvRKNS_13OcvDftOptionsEPKT_mPS4_S7_S7_mPKNS_7ComplexIS4_EE.exit

.lr.ph75.i:                                       ; preds = %._crit_edge.i
  %.idx.i = shl nuw nsw i64 %13, 4
  %wide.trip.count82.i = zext nneg i32 %11 to i64
  br label %49

49:                                               ; preds = %49, %.lr.ph75.i
  %indvars.iv79.i = phi i64 [ 0, %.lr.ph75.i ], [ %indvars.iv.next80.i, %49 ]
  %.05873.i = phi ptr [ %5, %.lr.ph75.i ], [ %59, %49 ]
  %50 = getelementptr inbounds nuw double, ptr %4, i64 %indvars.iv79.i
  %51 = load double, ptr %50, align 8, !tbaa !144
  store double %51, ptr %.05873.i, align 8, !tbaa !144
  %52 = trunc i64 %indvars.iv79.i to i32
  %53 = xor i32 %52, -1
  %54 = add i32 %10, %53
  %55 = sext i32 %54 to i64
  %56 = getelementptr inbounds double, ptr %4, i64 %55
  %57 = load double, ptr %56, align 8, !tbaa !144
  %58 = getelementptr inbounds nuw double, ptr %.05873.i, i64 %13
  store double %57, ptr %58, align 8, !tbaa !144
  %indvars.iv.next80.i = add nuw nsw i64 %indvars.iv79.i, 1
  %59 = getelementptr inbounds nuw i8, ptr %.05873.i, i64 %.idx.i
  %exitcond83.not.i = icmp eq i64 %indvars.iv.next80.i, %wide.trip.count82.i
  br i1 %exitcond83.not.i, label %_ZN2cvL4IDCTIdEEvRKNS_13OcvDftOptionsEPKT_mPS4_S7_S7_mPKNS_7ComplexIS4_EE.exit, label %49, !llvm.loop !329

_ZN2cvL4IDCTIdEEvRKNS_13OcvDftOptionsEPKT_mPS4_S7_S7_mPKNS_7ComplexIS4_EE.exit: ; preds = %49, %18, %._crit_edge.i
  ret void
}